; Function Attrs: mustprogress uwtable
define noundef i32 @ucol_previous_77(ptr noundef %0, ptr noundef %1) local_unnamed_addr #6 {
  %3 = load i32, ptr %1, align 4, !tbaa !12
  %4 = icmp slt i32 %3, 1
  br i1 %4, label %5, label %7

5:                                                ; preds = %2
  %6 = tail call noundef i32 @_ZN6icu_7724CollationElementIterator8previousER10UErrorCode(ptr noundef nonnull align 8 dereferenceable(104) %0, ptr noundef nonnull align 4 dereferenceable(4) %1)
  br label %7

7:                                                ; preds = %2, %5
  %.0 = phi i32 [ %6, %5 ], [ -1, %2 ]
  ret i32 %.0
}